target datalayout = "e-m:e-p270:32:32-p271:32:32-p272:64:64-i64:64-i128:128-f80:128-n8:16:32:64-S128"
target triple = "x86_64-pc-linux-gnu"

%struct.RelFileLocator = type { i32, i32, i32 }
%struct.XLogReaderState = type { %struct.XLogReaderRoutine, i64, ptr, i64, i64, i64, i64, i64, i64, i64, i64, ptr, ptr, i64, i8, ptr, ptr, ptr, ptr, ptr, i32, %struct.WALSegmentContext, %struct.WALOpenSegment, i32, i64, i32, i64, i32, i64, i32, ptr, i32, ptr, i8, i8 }
%struct.XLogReaderRoutine = type { ptr, ptr, ptr }
%struct.WALSegmentContext = type { [1024 x i8], i32 }
%struct.WALOpenSegment = type { i32, i64, i32 }
%struct.DecodedXLogRecord = type { i64, i8, ptr, i64, i64, %struct.XLogRecord, i16, i32, ptr, i32, i32, [0 x %struct.DecodedBkpBlock] }
%struct.XLogRecord = type { i32, i32, i64, i8, i8, i32 }
%struct.DecodedBkpBlock = type { i8, %struct.RelFileLocator, i32, i32, i32, i8, i8, i8, ptr, i16, i16, i16, i8, i8, ptr, i16, i16 }
%struct.xl_heap_rewrite_mapping = type { i32, i32, i32, i64, i32, i64 }

@.str.3 = private unnamed_addr constant [25 x i8] c"%s/map-%x-%x-%X_%X-%x-%x\00", align 1
@.str.4 = private unnamed_addr constant [20 x i8] c"pg_logical/mappings\00", align 1
@.str.5 = private unnamed_addr constant [31 x i8] c"could not create file \22%s\22: %m\00", align 1
@.str.6 = private unnamed_addr constant [14 x i8] c"rewriteheap.c\00", align 1
@__func__.heap_xlog_logical_rewrite = private unnamed_addr constant [26 x i8] c"heap_xlog_logical_rewrite\00", align 1
@.str.7 = private unnamed_addr constant [39 x i8] c"could not truncate file \22%s\22 to %u: %m\00", align 1
@.str.8 = private unnamed_addr constant [33 x i8] c"could not write to file \22%s\22: %m\00", align 1
@.str.9 = private unnamed_addr constant [30 x i8] c"could not fsync file \22%s\22: %m\00", align 1
@.str.10 = private unnamed_addr constant [30 x i8] c"could not close file \22%s\22: %m\00", align 1
@my_wait_event_info = external global ptr, align 8

; Function Attrs: inlinehint nounwind uwtable
define internal void @pgstat_report_wait_end() #3 {
  %1 = load ptr, ptr @my_wait_event_info, align 8
  store volatile i32 0, ptr %1, align 4
  ret void
}

; Function Attrs: inlinehint nounwind uwtable
define internal void @pgstat_report_wait_start(i32 noundef %0) #3 {
  %2 = alloca i32, align 4
  store i32 %0, ptr %2, align 4
  %3 = load i32, ptr %2, align 4
  %4 = load ptr, ptr @my_wait_event_info, align 8
  store volatile i32 %3, ptr %4, align 4
  ret void
}

; Function Attrs: nounwind uwtable
define dso_local void @heap_xlog_logical_rewrite(ptr noundef %0) #0 {
  %2 = alloca ptr, align 8
  %3 = alloca [1024 x i8], align 16
  %4 = alloca i32, align 4
  %5 = alloca ptr, align 8
  %6 = alloca i32, align 4
  %7 = alloca ptr, align 8
  %8 = alloca i32, align 4
  store ptr %0, ptr %2, align 8
  call void @llvm.lifetime.start.p0(i64 1024, ptr %3) #10
  call void @llvm.lifetime.start.p0(i64 4, ptr %4) #10
  call void @llvm.lifetime.start.p0(i64 8, ptr %5) #10
  call void @llvm.lifetime.start.p0(i64 4, ptr %6) #10
  call void @llvm.lifetime.start.p0(i64 8, ptr %7) #10
  %9 = load ptr, ptr %2, align 8
  %10 = getelementptr inbounds nuw %struct.XLogReaderState, ptr %9, i32 0, i32 11
  %11 = load ptr, ptr %10, align 8
  %12 = getelementptr inbounds nuw %struct.DecodedXLogRecord, ptr %11, i32 0, i32 8
  %13 = load ptr, ptr %12, align 8
  store ptr %13, ptr %5, align 8
  %14 = getelementptr inbounds [1024 x i8], ptr %3, i64 0, i64 0
  %15 = load ptr, ptr %5, align 8
  %16 = getelementptr inbounds nuw %struct.xl_heap_rewrite_mapping, ptr %15, i32 0, i32 1
  %17 = load i32, ptr %16, align 4
  %18 = load ptr, ptr %5, align 8
  %19 = getelementptr inbounds nuw %struct.xl_heap_rewrite_mapping, ptr %18, i32 0, i32 2
  %20 = load i32, ptr %19, align 8
  br label %21

21:                                               ; preds = %1
  br label %22

22:                                               ; preds = %21
  br label %23

23:                                               ; preds = %22
  store i32 1, ptr %8, align 4
  %24 = load ptr, ptr %5, align 8
  %25 = getelementptr inbounds nuw %struct.xl_heap_rewrite_mapping, ptr %24, i32 0, i32 5
  %26 = load i64, ptr %25, align 8
  %27 = lshr i64 %26, 32
  %28 = trunc i64 %27 to i32
  %29 = load ptr, ptr %5, align 8
  %30 = getelementptr inbounds nuw %struct.xl_heap_rewrite_mapping, ptr %29, i32 0, i32 5
  %31 = load i64, ptr %30, align 8
  %32 = trunc i64 %31 to i32
  %33 = load ptr, ptr %5, align 8
  %34 = getelementptr inbounds nuw %struct.xl_heap_rewrite_mapping, ptr %33, i32 0, i32 0
  %35 = load i32, ptr %34, align 8
  %36 = load ptr, ptr %2, align 8
  %37 = getelementptr inbounds nuw %struct.XLogReaderState, ptr %36, i32 0, i32 11
  %38 = load ptr, ptr %37, align 8
  %39 = getelementptr inbounds nuw %struct.DecodedXLogRecord, ptr %38, i32 0, i32 5
  %40 = getelementptr inbounds nuw %struct.XLogRecord, ptr %39, i32 0, i32 1
  %41 = load i32, ptr %40, align 4
  %42 = call i32 (ptr, i64, ptr, ...) @pg_snprintf(ptr noundef %14, i64 noundef 1024, ptr noundef @.str.3, ptr noundef @.str.4, i32 noundef %17, i32 noundef %20, i32 noundef %28, i32 noundef %32, i32 noundef %35, i32 noundef %41)
  %43 = getelementptr inbounds [1024 x i8], ptr %3, i64 0, i64 0
  %44 = call i32 @OpenTransientFile(ptr noundef %43, i32 noundef 65)
  store i32 %44, ptr %4, align 4
  %45 = load i32, ptr %4, align 4
  %46 = icmp slt i32 %45, 0
  br i1 %46, label %47, label %60

47:                                               ; preds = %23
  br label %48

48:                                               ; preds = %47
  br i1 true, label %49, label %51

49:                                               ; preds = %48
  %50 = call zeroext i1 @errstart_cold(i32 noundef 21, ptr noundef null) #11
  br i1 %50, label %53, label %57

51:                                               ; preds = %48
  %52 = call zeroext i1 @errstart(i32 noundef 21, ptr noundef null)
  br i1 %52, label %53, label %57

53:                                               ; preds = %51, %49
  %54 = call i32 @errcode_for_file_access()
  %55 = getelementptr inbounds [1024 x i8], ptr %3, i64 0, i64 0
  %56 = call i32 (ptr, ...) @errmsg(ptr noundef @.str.5, ptr noundef %55)
  call void @errfinish(ptr noundef @.str.6, i32 noundef 1094, ptr noundef @__func__.heap_xlog_logical_rewrite)
  br label %57

57:                                               ; preds = %53, %51, %49
  unreachable

58:                                               ; No predecessors!
  br label %59

59:                                               ; preds = %58
  br label %60

60:                                               ; preds = %59, %23
  call void @pgstat_report_wait_start(i32 noundef 167772194)
  %61 = load i32, ptr %4, align 4
  %62 = load ptr, ptr %5, align 8
  %63 = getelementptr inbounds nuw %struct.xl_heap_rewrite_mapping, ptr %62, i32 0, i32 3
  %64 = load i64, ptr %63, align 8
  %65 = call i32 @ftruncate(i32 noundef %61, i64 noundef %64) #10
  %66 = icmp ne i32 %65, 0
  br i1 %66, label %67, label %84

67:                                               ; preds = %60
  br label %68

68:                                               ; preds = %67
  br i1 true, label %69, label %71

69:                                               ; preds = %68
  %70 = call zeroext i1 @errstart_cold(i32 noundef 21, ptr noundef null) #11
  br i1 %70, label %73, label %81

71:                                               ; preds = %68
  %72 = call zeroext i1 @errstart(i32 noundef 21, ptr noundef null)
  br i1 %72, label %73, label %81

73:                                               ; preds = %71, %69
  %74 = call i32 @errcode_for_file_access()
  %75 = getelementptr inbounds [1024 x i8], ptr %3, i64 0, i64 0
  %76 = load ptr, ptr %5, align 8
  %77 = getelementptr inbounds nuw %struct.xl_heap_rewrite_mapping, ptr %76, i32 0, i32 3
  %78 = load i64, ptr %77, align 8
  %79 = trunc i64 %78 to i32
  %80 = call i32 (ptr, ...) @errmsg(ptr noundef @.str.7, ptr noundef %75, i32 noundef %79)
  call void @errfinish(ptr noundef @.str.6, i32 noundef 1105, ptr noundef @__func__.heap_xlog_logical_rewrite)
  br label %81

81:                                               ; preds = %73, %71, %69
  unreachable

82:                                               ; No predecessors!
  br label %83

83:                                               ; preds = %82
  br label %84

84:                                               ; preds = %83, %60
  call void @pgstat_report_wait_end()
  %85 = load ptr, ptr %2, align 8
  %86 = getelementptr inbounds nuw %struct.XLogReaderState, ptr %85, i32 0, i32 11
  %87 = load ptr, ptr %86, align 8
  %88 = getelementptr inbounds nuw %struct.DecodedXLogRecord, ptr %87, i32 0, i32 8
  %89 = load ptr, ptr %88, align 8
  %90 = getelementptr inbounds nuw i8, ptr %89, i64 40
  store ptr %90, ptr %7, align 8
  %91 = load ptr, ptr %5, align 8
  %92 = getelementptr inbounds nuw %struct.xl_heap_rewrite_mapping, ptr %91, i32 0, i32 4
  %93 = load i32, ptr %92, align 8
  %94 = zext i32 %93 to i64
  %95 = mul i64 %94, 36
  %96 = trunc i64 %95 to i32
  store i32 %96, ptr %6, align 4
  %97 = call ptr @__errno_location() #12
  store i32 0, ptr %97, align 4
  call void @pgstat_report_wait_start(i32 noundef 167772192)
  %98 = load i32, ptr %4, align 4
  %99 = load ptr, ptr %7, align 8
  %100 = load i32, ptr %6, align 4
  %101 = zext i32 %100 to i64
  %102 = load ptr, ptr %5, align 8
  %103 = getelementptr inbounds nuw %struct.xl_heap_rewrite_mapping, ptr %102, i32 0, i32 3
  %104 = load i64, ptr %103, align 8
  %105 = call i64 @pwrite(i32 noundef %98, ptr noundef %99, i64 noundef %101, i64 noundef %104)
  %106 = load i32, ptr %6, align 4
  %107 = zext i32 %106 to i64
  %108 = icmp ne i64 %105, %107
  br i1 %108, label %109, label %128

109:                                              ; preds = %84
  %110 = call ptr @__errno_location() #12
  %111 = load i32, ptr %110, align 4
  %112 = icmp eq i32 %111, 0
  br i1 %112, label %113, label %115

113:                                              ; preds = %109
  %114 = call ptr @__errno_location() #12
  store i32 28, ptr %114, align 4
  br label %115

115:                                              ; preds = %113, %109
  br label %116

116:                                              ; preds = %115
  br i1 true, label %117, label %119

117:                                              ; preds = %116
  %118 = call zeroext i1 @errstart_cold(i32 noundef 21, ptr noundef null) #11
  br i1 %118, label %121, label %125

119:                                              ; preds = %116
  %120 = call zeroext i1 @errstart(i32 noundef 21, ptr noundef null)
  br i1 %120, label %121, label %125

121:                                              ; preds = %119, %117
  %122 = call i32 @errcode_for_file_access()
  %123 = getelementptr inbounds [1024 x i8], ptr %3, i64 0, i64 0
  %124 = call i32 (ptr, ...) @errmsg(ptr noundef @.str.8, ptr noundef %123)
  call void @errfinish(ptr noundef @.str.6, i32 noundef 1122, ptr noundef @__func__.heap_xlog_logical_rewrite)
  br label %125

125:                                              ; preds = %121, %119, %117
  unreachable

126:                                              ; No predecessors!
  br label %127

127:                                              ; preds = %126
  br label %128

128:                                              ; preds = %127, %84
  call void @pgstat_report_wait_end()
  call void @pgstat_report_wait_start(i32 noundef 167772191)
  %129 = load i32, ptr %4, align 4
  %130 = call i32 @pg_fsync(i32 noundef %129)
  %131 = icmp ne i32 %130, 0
  br i1 %131, label %132, label %150

132:                                              ; preds = %128
  br label %133

133:                                              ; preds = %132
  br i1 false, label %134, label %140

134:                                              ; preds = %133
  %135 = call i32 @data_sync_elevel(i32 noundef 21)
  %136 = icmp sge i32 %135, 21
  br i1 %136, label %137, label %140

137:                                              ; preds = %134
  %138 = call i32 @data_sync_elevel(i32 noundef 21)
  %139 = call zeroext i1 @errstart_cold(i32 noundef %138, ptr noundef null) #11
  br i1 %139, label %143, label %147

140:                                              ; preds = %134, %133
  %141 = call i32 @data_sync_elevel(i32 noundef 21)
  %142 = call zeroext i1 @errstart(i32 noundef %141, ptr noundef null)
  br i1 %142, label %143, label %147

143:                                              ; preds = %140, %137
  %144 = call i32 @errcode_for_file_access()
  %145 = getelementptr inbounds [1024 x i8], ptr %3, i64 0, i64 0
  %146 = call i32 (ptr, ...) @errmsg(ptr noundef @.str.9, ptr noundef %145)
  call void @errfinish(ptr noundef @.str.6, i32 noundef 1135, ptr noundef @__func__.heap_xlog_logical_rewrite)
  br label %147

147:                                              ; preds = %143, %140, %137
  br label %148

148:                                              ; preds = %147
  br label %149

149:                                              ; preds = %148
  br label %150

150:                                              ; preds = %149, %128
  call void @pgstat_report_wait_end()
  %151 = load i32, ptr %4, align 4
  %152 = call i32 @CloseTransientFile(i32 noundef %151)
  %153 = icmp ne i32 %152, 0
  br i1 %153, label %154, label %167

154:                                              ; preds = %150
  br label %155

155:                                              ; preds = %154
  br i1 true, label %156, label %158

156:                                              ; preds = %155
  %157 = call zeroext i1 @errstart_cold(i32 noundef 21, ptr noundef null) #11
  br i1 %157, label %160, label %164

158:                                              ; preds = %155
  %159 = call zeroext i1 @errstart(i32 noundef 21, ptr noundef null)
  br i1 %159, label %160, label %164

160:                                              ; preds = %158, %156
  %161 = call i32 @errcode_for_file_access()
  %162 = getelementptr inbounds [1024 x i8], ptr %3, i64 0, i64 0
  %163 = call i32 (ptr, ...) @errmsg(ptr noundef @.str.10, ptr noundef %162)
  call void @errfinish(ptr noundef @.str.6, i32 noundef 1141, ptr noundef @__func__.heap_xlog_logical_rewrite)
  br label %164

164:                                              ; preds = %160, %158, %156
  unreachable

165:                                              ; No predecessors!
  br label %166

166:                                              ; preds = %165
  br label %167

167:                                              ; preds = %166, %150
  call void @llvm.lifetime.end.p0(i64 8, ptr %7) #10
  call void @llvm.lifetime.end.p0(i64 4, ptr %6) #10
  call void @llvm.lifetime.end.p0(i64 8, ptr %5) #10
  call void @llvm.lifetime.end.p0(i64 4, ptr %4) #10
  call void @llvm.lifetime.end.p0(i64 1024, ptr %3) #10
  ret void
}