; Function Attrs: nounwind uwtable
define dso_local void @heap_xlog_logical_rewrite(ptr noundef readonly captures(none) %0) local_unnamed_addr #0 {
  %2 = alloca [1024 x i8], align 16
  call void @llvm.lifetime.start.p0(i64 1024, ptr nonnull %2) #13
  %3 = getelementptr inbounds nuw i8, ptr %0, i64 104
  %4 = load ptr, ptr %3, align 8
  %5 = getelementptr inbounds nuw i8, ptr %4, i64 72
  %6 = load ptr, ptr %5, align 8
  %7 = getelementptr inbounds nuw i8, ptr %6, i64 4
  %8 = load i32, ptr %7, align 4
  %9 = getelementptr inbounds nuw i8, ptr %6, i64 8
  %10 = load i32, ptr %9, align 8
  %11 = getelementptr inbounds nuw i8, ptr %6, i64 32
  %12 = load i64, ptr %11, align 8
  %13 = lshr i64 %12, 32
  %14 = trunc nuw i64 %13 to i32
  %15 = trunc i64 %12 to i32
  %16 = load i32, ptr %6, align 8
  %17 = getelementptr inbounds nuw i8, ptr %4, i64 44
  %18 = load i32, ptr %17, align 4
  %19 = call i32 (ptr, i64, ptr, ...) @pg_snprintf(ptr noundef nonnull %2, i64 noundef 1024, ptr noundef nonnull @.str.3, ptr noundef nonnull @.str.4, i32 noundef %8, i32 noundef %10, i32 noundef %14, i32 noundef %15, i32 noundef %16, i32 noundef %18) #13
  %20 = call i32 @OpenTransientFile(ptr noundef nonnull %2, i32 noundef 65) #13
  %21 = icmp slt i32 %20, 0
  br i1 %21, label %22, label %26

22:                                               ; preds = %1
  %23 = call zeroext i1 @errstart_cold(i32 noundef 21, ptr noundef null) #14
  call void @llvm.assume(i1 %23)
  %24 = call i32 @errcode_for_file_access() #13
  %25 = call i32 (ptr, ...) @errmsg(ptr noundef nonnull @.str.5, ptr noundef nonnull %2) #13
  call void @errfinish(ptr noundef nonnull @.str.6, i32 noundef 1094, ptr noundef nonnull @__func__.heap_xlog_logical_rewrite) #13
  unreachable

26:                                               ; preds = %1
  %27 = load ptr, ptr @my_wait_event_info, align 8
  store volatile i32 167772194, ptr %27, align 4
  %28 = getelementptr inbounds nuw i8, ptr %6, i64 16
  %29 = load i64, ptr %28, align 8
  %30 = call i32 @ftruncate(i32 noundef %20, i64 noundef %29) #13
  %.not = icmp eq i32 %30, 0
  br i1 %.not, label %37, label %31

31:                                               ; preds = %26
  %32 = call zeroext i1 @errstart_cold(i32 noundef 21, ptr noundef null) #14
  call void @llvm.assume(i1 %32)
  %33 = call i32 @errcode_for_file_access() #13
  %34 = load i64, ptr %28, align 8
  %35 = trunc i64 %34 to i32
  %36 = call i32 (ptr, ...) @errmsg(ptr noundef nonnull @.str.7, ptr noundef nonnull %2, i32 noundef %35) #13
  call void @errfinish(ptr noundef nonnull @.str.6, i32 noundef 1105, ptr noundef nonnull @__func__.heap_xlog_logical_rewrite) #13
  unreachable

37:                                               ; preds = %26
  %38 = load ptr, ptr @my_wait_event_info, align 8
  store volatile i32 0, ptr %38, align 4
  %39 = load ptr, ptr %3, align 8
  %40 = getelementptr inbounds nuw i8, ptr %39, i64 72
  %41 = load ptr, ptr %40, align 8
  %42 = getelementptr inbounds nuw i8, ptr %41, i64 40
  %43 = getelementptr inbounds nuw i8, ptr %6, i64 24
  %44 = load i32, ptr %43, align 8
  %45 = mul i32 %44, 36
  %46 = tail call ptr @__errno_location() #15
  store i32 0, ptr %46, align 4
  %47 = load ptr, ptr @my_wait_event_info, align 8
  store volatile i32 167772192, ptr %47, align 4
  %48 = zext i32 %45 to i64
  %49 = load i64, ptr %28, align 8
  %50 = call i64 @pwrite(i32 noundef %20, ptr noundef nonnull %42, i64 noundef %48, i64 noundef %49) #13
  %.not19 = icmp eq i64 %50, %48
  br i1 %.not19, label %59, label %51

51:                                               ; preds = %37
  %52 = load i32, ptr %46, align 4
  %53 = icmp eq i32 %52, 0
  br i1 %53, label %54, label %55

54:                                               ; preds = %51
  store i32 28, ptr %46, align 4
  br label %55

55:                                               ; preds = %54, %51
  %56 = call zeroext i1 @errstart_cold(i32 noundef 21, ptr noundef null) #14
  call void @llvm.assume(i1 %56)
  %57 = call i32 @errcode_for_file_access() #13
  %58 = call i32 (ptr, ...) @errmsg(ptr noundef nonnull @.str.8, ptr noundef nonnull %2) #13
  call void @errfinish(ptr noundef nonnull @.str.6, i32 noundef 1122, ptr noundef nonnull @__func__.heap_xlog_logical_rewrite) #13
  unreachable

59:                                               ; preds = %37
  %60 = load ptr, ptr @my_wait_event_info, align 8
  store volatile i32 0, ptr %60, align 4
  %61 = load ptr, ptr @my_wait_event_info, align 8
  store volatile i32 167772191, ptr %61, align 4
  %62 = call i32 @pg_fsync(i32 noundef %20) #13
  %.not20 = icmp eq i32 %62, 0
  br i1 %.not20, label %69, label %63

63:                                               ; preds = %59
  %64 = call i32 @data_sync_elevel(i32 noundef 21) #13
  %65 = call zeroext i1 @errstart(i32 noundef %64, ptr noundef null) #13
  br i1 %65, label %66, label %69

66:                                               ; preds = %63
  %67 = call i32 @errcode_for_file_access() #13
  %68 = call i32 (ptr, ...) @errmsg(ptr noundef nonnull @.str.9, ptr noundef nonnull %2) #13
  call void @errfinish(ptr noundef nonnull @.str.6, i32 noundef 1135, ptr noundef nonnull @__func__.heap_xlog_logical_rewrite) #13
  br label %69

69:                                               ; preds = %63, %66, %59
  %70 = load ptr, ptr @my_wait_event_info, align 8
  store volatile i32 0, ptr %70, align 4
  %71 = call i32 @CloseTransientFile(i32 noundef %20) #13
  %.not21 = icmp eq i32 %71, 0
  br i1 %.not21, label %76, label %72

72:                                               ; preds = %69
  %73 = call zeroext i1 @errstart_cold(i32 noundef 21, ptr noundef null) #14
  call void @llvm.assume(i1 %73)
  %74 = call i32 @errcode_for_file_access() #13
  %75 = call i32 (ptr, ...) @errmsg(ptr noundef nonnull @.str.10, ptr noundef nonnull %2) #13
  call void @errfinish(ptr noundef nonnull @.str.6, i32 noundef 1141, ptr noundef nonnull @__func__.heap_xlog_logical_rewrite) #13
  unreachable

76:                                               ; preds = %69
  call void @llvm.lifetime.end.p0(i64 1024, ptr nonnull %2) #13
  ret void
}